target datalayout = "e-m:e-p270:32:32-p271:32:32-p272:64:64-i64:64-i128:128-f80:128-n8:16:32:64-S128"
target triple = "x86_64-pc-linux-gnu"

%class.LogTagSet = type { ptr, i64, [5 x i32], [4 x i8], %class.LogOutputList, %class.LogDecorators, ptr }
%class.LogOutputList = type <{ [6 x ptr], i32, [4 x i8] }>
%class.LogDecorators = type { i32 }
%class.G1CMIsAliveClosure = type { %class.BoolObjectClosure, ptr }
%class.BoolObjectClosure = type { ptr }
%class.BitMap = type { ptr, i64 }
%class.G1MappingChangedListener = type { ptr }
%class.MemRegion = type { ptr, i64 }
%class.G1CMSubjectToDiscoveryClosure = type { %class.BoolObjectClosure, ptr }
%class.G1STWIsAliveClosure = type { %class.BoolObjectClosure, ptr }
%class.TimeInstant = type { %class.CompositeCounterRepresentation }
%class.CompositeCounterRepresentation = type { %class.Representation }
%class.Representation = type { %class.PairRep }
%class.PairRep = type { i64, i64 }
%class.G1CollectedHeap = type { %class.CollectedHeap, ptr, ptr, ptr, ptr, ptr, %class.TimeInstant, %class.G1HeapRegionSet, %class.G1HeapRegionSet, %class.G1MonotonicArenaMemoryStats, %class.G1MonotonicArenaMemoryStats, ptr, %class.G1RegionMappingChangedListener, ptr, %class.G1HeapRegionManager, ptr, %class.G1YoungGCAllocationFailureInjector, ptr, i64, i64, %class.G1EvacStats, %class.G1EvacStats, ptr, i32, i32, %class.G1CollectorState, i32, i32, %class.G1EdenRegions, %class.G1SurvivorRegions, ptr, ptr, ptr, ptr, %class.G1CollectionSet, ptr, %class.G1CardSetConfiguration, %class.G1MonotonicArenaFreePool, ptr, ptr, ptr, ptr, ptr, %class.G1STWIsAliveClosure, %class.G1STWSubjectToDiscoveryClosure, ptr, %class.G1CMIsAliveClosure, %class.G1CMSubjectToDiscoveryClosure, %class.G1HeapRegionAttrBiasedMappedArray }
%class.CollectedHeap = type { ptr, ptr, i64, i64, %class.SoftRefPolicy, %class.MemRegion, i8, i64, i32, i32, i32, i32, ptr, ptr }
%class.SoftRefPolicy = type { i8, i8 }
%class.G1HeapRegionSet = type { %class.G1HeapRegionSetBase.base, [7 x i8] }
%class.G1HeapRegionSetBase.base = type <{ ptr, ptr, i32, [4 x i8], ptr, i8 }>
%class.G1MonotonicArenaMemoryStats = type { [4 x i64], [4 x i64] }
%class.G1RegionMappingChangedListener = type { %class.G1MappingChangedListener }
%class.G1HeapRegionManager = type { ptr, ptr, %class.G1CommittedRegionMap, i32, [4 x i8], %class.G1HeapRegionTable, ptr, ptr, %class.G1FreeRegionList }
%class.G1CommittedRegionMap = type { ptr, %class.CHeapBitMap, %class.CHeapBitMap, i32, i32 }
%class.CHeapBitMap = type <{ %class.GrowableBitMap, i8, [7 x i8] }>
%class.GrowableBitMap = type { %class.BitMap }
%class.G1HeapRegionTable = type { %class.G1BiasedMappedArray.base, [4 x i8] }
%class.G1BiasedMappedArray.base = type { %class.G1BiasedMappedArrayBase.base }
%class.G1BiasedMappedArrayBase.base = type <{ ptr, ptr, ptr, i64, ptr, i64, i32 }>
%class.G1FreeRegionList = type { %class.G1HeapRegionSetBase.base, ptr, ptr, ptr, ptr }
%class.G1YoungGCAllocationFailureInjector = type { i8 }
%class.G1EvacStats = type { %class.PLABStats, i64, i64, %class.AdaptiveWeightedAverage, i64, i32, i64, i64, i64, i64, i64 }
%class.PLABStats = type { ptr, ptr, i64, i64, i64, i64 }
%class.AdaptiveWeightedAverage = type { float, i32, i32, i8, float }
%class.G1CollectorState = type { i8, i8, i8, i8, i8, i8, i8 }
%class.G1EdenRegions = type { i32, i64, %class.G1RegionsOnNodes }
%class.G1RegionsOnNodes = type { ptr, ptr }
%class.G1SurvivorRegions = type { ptr, i64, %class.G1RegionsOnNodes }
%class.G1CollectionSet = type { ptr, ptr, %class.G1CollectionSetCandidates, ptr, i32, i32, i32, i32, i32, %class.G1CollectionCandidateRegionList, i32, i64 }
%class.G1CollectionSetCandidates = type { [8 x i8], %class.G1CollectionCandidateList, %class.G1CollectionCandidateList, ptr, i32, i32 }
%class.G1CollectionCandidateList = type { %class.GrowableArray }
%class.GrowableArray = type { %class.GrowableArrayWithAllocator, %class.GrowableArrayMetadata }
%class.GrowableArrayWithAllocator = type { %class.GrowableArrayView }
%class.GrowableArrayView = type { %class.GrowableArrayBase, ptr }
%class.GrowableArrayBase = type { i32, i32 }
%class.GrowableArrayMetadata = type { i64 }
%class.G1CollectionCandidateRegionList = type { %class.GrowableArray.2 }
%class.GrowableArray.2 = type { %class.GrowableArrayWithAllocator.3, %class.GrowableArrayMetadata }
%class.GrowableArrayWithAllocator.3 = type { %class.GrowableArrayView.4 }
%class.GrowableArrayView.4 = type { %class.GrowableArrayBase, ptr }
%class.G1CardSetConfiguration = type { i32, i32, i32, i32, i32, i32, i32, i32, i32, i32, i32, ptr }
%class.G1MonotonicArenaFreePool = type { i32, ptr }
%class.G1STWSubjectToDiscoveryClosure = type { %class.BoolObjectClosure, ptr }
%class.G1HeapRegionAttrBiasedMappedArray = type { %class.G1BiasedMappedArray.base.6, [4 x i8] }
%class.G1BiasedMappedArray.base.6 = type { %class.G1BiasedMappedArrayBase.base }
%class.GCCauseSetter = type <{ ptr, i32, [4 x i8] }>

@.str.17 = private unnamed_addr constant [60 x i8] c"Attempting maximal full compaction clearing soft references\00", align 1
@.str.18 = private unnamed_addr constant [27 x i8] c"Attempting full compaction\00", align 1
@MinHeapDeltaBytes = external global i64, align 8
@.str.19 = private unnamed_addr constant [77 x i8] c"Attempt heap expansion (allocation request failed). Allocation request: %luB\00", align 1
@_ZN16LogTagSetMappingILN6LogTag4typeE49ELS1_40ELS1_52ELS1_0ELS1_0ELS1_0EE7_tagsetE = linkonce_odr hidden global %class.LogTagSet zeroinitializer, comdat, align 8
@_ZN16LogTagSetMappingILN6LogTag4typeE49ELS1_40ELS1_0ELS1_0ELS1_0ELS1_0EE7_tagsetE = linkonce_odr hidden global %class.LogTagSet zeroinitializer, comdat, align 8

; Function Attrs: mustprogress nounwind uwtable
define linkonce_odr hidden noundef zeroext i1 @_ZNK13LogOutputList8is_levelEN8LogLevel4typeE(ptr noundef nonnull align 8 dereferenceable(52) %0, i32 noundef %1) #1 comdat align 2 {
  %3 = alloca ptr, align 8
  %4 = alloca i32, align 4
  store ptr %0, ptr %3, align 8
  store i32 %1, ptr %4, align 4
  %5 = load ptr, ptr %3, align 8
  %6 = getelementptr inbounds %class.LogOutputList, ptr %5, i32 0, i32 0
  %7 = load i32, ptr %4, align 4
  %8 = zext i32 %7 to i64
  %9 = getelementptr inbounds [6 x ptr], ptr %6, i64 0, i64 %8
  %10 = load volatile ptr, ptr %9, align 8
  %11 = icmp ne ptr %10, null
  ret i1 %11
}

; Function Attrs: mustprogress nounwind uwtable
define linkonce_odr hidden noundef nonnull align 8 dereferenceable(112) ptr @_ZN16LogTagSetMappingILN6LogTag4typeE49ELS1_40ELS1_52ELS1_0ELS1_0ELS1_0EE6tagsetEv() #1 comdat align 2 {
  ret ptr @_ZN16LogTagSetMappingILN6LogTag4typeE49ELS1_40ELS1_52ELS1_0ELS1_0ELS1_0EE7_tagsetE
}

; Function Attrs: mustprogress nounwind uwtable
define linkonce_odr hidden noundef zeroext i1 @_ZNK9LogTagSet8is_levelEN8LogLevel4typeE(ptr noundef nonnull align 8 dereferenceable(112) %0, i32 noundef %1) #1 comdat align 2 {
  %3 = alloca ptr, align 8
  %4 = alloca i32, align 4
  store ptr %0, ptr %3, align 8
  store i32 %1, ptr %4, align 4
  %5 = load ptr, ptr %3, align 8
  %6 = getelementptr inbounds %class.LogTagSet, ptr %5, i32 0, i32 4
  %7 = load i32, ptr %4, align 4
  %8 = call noundef zeroext i1 @_ZNK13LogOutputList8is_levelEN8LogLevel4typeE(ptr noundef nonnull align 8 dereferenceable(52) %6, i32 noundef %7)
  ret i1 %8
}

; Function Attrs: mustprogress nounwind uwtable
define linkonce_odr hidden noundef nonnull align 8 dereferenceable(112) ptr @_ZN16LogTagSetMappingILN6LogTag4typeE49ELS1_40ELS1_0ELS1_0ELS1_0ELS1_0EE6tagsetEv() #1 comdat align 2 {
  ret ptr @_ZN16LogTagSetMappingILN6LogTag4typeE49ELS1_40ELS1_0ELS1_0ELS1_0ELS1_0EE7_tagsetE
}

; Function Attrs: mustprogress nounwind uwtable
define linkonce_odr hidden noundef i32 @_ZN13CollectedHeap8gc_causeEv(ptr noundef nonnull align 8 dereferenceable(104) %0) #1 comdat align 2 {
  %2 = alloca ptr, align 8
  store ptr %0, ptr %2, align 8
  %3 = load ptr, ptr %2, align 8
  %4 = getelementptr inbounds %class.CollectedHeap, ptr %3, i32 0, i32 10
  %5 = load i32, ptr %4, align 8
  ret i32 %5
}

; Function Attrs: mustprogress nounwind uwtable
define linkonce_odr hidden void @_ZN19G1HeapRegionManager15verify_optionalEv(ptr noundef nonnull align 8 dereferenceable(232) %0) #1 comdat align 2 {
  %2 = alloca ptr, align 8
  store ptr %0, ptr %2, align 8
  ret void
}

; Function Attrs: mustprogress nounwind uwtable
define linkonce_odr hidden noundef zeroext i1 @_ZN7LogImplILN6LogTag4typeE49ELS1_40ELS1_52ELS1_0ELS1_0ELS1_0EE8is_levelEN8LogLevel4typeE(i32 noundef %0) #1 comdat align 2 {
  %2 = alloca i32, align 4
  store i32 %0, ptr %2, align 4
  %3 = call noundef nonnull align 8 dereferenceable(112) ptr @_ZN16LogTagSetMappingILN6LogTag4typeE49ELS1_40ELS1_52ELS1_0ELS1_0ELS1_0EE6tagsetEv()
  %4 = load i32, ptr %2, align 4
  %5 = call noundef zeroext i1 @_ZNK9LogTagSet8is_levelEN8LogLevel4typeE(ptr noundef nonnull align 8 dereferenceable(112) %3, i32 noundef %4)
  ret i1 %5
}

; Function Attrs: mustprogress nounwind uwtable
define linkonce_odr hidden noundef i64 @_Z4MAX2ImET_S0_S0_(i64 noundef %0, i64 noundef %1) #1 comdat {
  %3 = alloca i64, align 8
  %4 = alloca i64, align 8
  store i64 %0, ptr %3, align 8
  store i64 %1, ptr %4, align 8
  %5 = load i64, ptr %3, align 8
  %6 = load i64, ptr %4, align 8
  %7 = icmp ugt i64 %5, %6
  br i1 %7, label %8, label %10

8:                                                ; preds = %2
  %9 = load i64, ptr %3, align 8
  br label %12

10:                                               ; preds = %2
  %11 = load i64, ptr %4, align 8
  br label %12

12:                                               ; preds = %10, %8
  %13 = phi i64 [ %9, %8 ], [ %11, %10 ]
  ret i64 %13
}

; Function Attrs: mustprogress nounwind uwtable
define linkonce_odr hidden void @_ZN14G1HeapVerifier27verify_region_sets_optionalEv(ptr noundef nonnull align 8 dereferenceable(8) %0) #1 comdat align 2 {
  %2 = alloca ptr, align 8
  store ptr %0, ptr %2, align 8
  ret void
}

; Function Attrs: mustprogress nounwind uwtable
define linkonce_odr hidden void @_ZN13GCCauseSetterD2Ev(ptr noundef nonnull align 8 dereferenceable(12) %0) unnamed_addr #1 comdat align 2 {
  %2 = alloca ptr, align 8
  store ptr %0, ptr %2, align 8
  %3 = load ptr, ptr %2, align 8
  %4 = getelementptr inbounds %class.GCCauseSetter, ptr %3, i32 0, i32 0
  %5 = load ptr, ptr %4, align 8
  %6 = getelementptr inbounds %class.GCCauseSetter, ptr %3, i32 0, i32 1
  %7 = load i32, ptr %6, align 8
  call void @_ZN13CollectedHeap12set_gc_causeEN7GCCause5CauseE(ptr noundef nonnull align 8 dereferenceable(104) %5, i32 noundef %7)
  ret void
}

; Function Attrs: mustprogress nounwind uwtable
define linkonce_odr hidden noundef zeroext i1 @_ZN7LogImplILN6LogTag4typeE49ELS1_40ELS1_0ELS1_0ELS1_0ELS1_0EE8is_levelEN8LogLevel4typeE(i32 noundef %0) #1 comdat align 2 {
  %2 = alloca i32, align 4
  store i32 %0, ptr %2, align 4
  %3 = call noundef nonnull align 8 dereferenceable(112) ptr @_ZN16LogTagSetMappingILN6LogTag4typeE49ELS1_40ELS1_0ELS1_0ELS1_0ELS1_0EE6tagsetEv()
  %4 = load i32, ptr %2, align 4
  %5 = call noundef zeroext i1 @_ZNK9LogTagSet8is_levelEN8LogLevel4typeE(ptr noundef nonnull align 8 dereferenceable(112) %3, i32 noundef %4)
  ret i1 %5
}

; Function Attrs: mustprogress nounwind uwtable
define linkonce_odr hidden void @_ZN13GCCauseSetterC2EP13CollectedHeapN7GCCause5CauseE(ptr noundef nonnull align 8 dereferenceable(12) %0, ptr noundef %1, i32 noundef %2) unnamed_addr #1 comdat align 2 {
  %4 = alloca ptr, align 8
  %5 = alloca ptr, align 8
  %6 = alloca i32, align 4
  store ptr %0, ptr %4, align 8
  store ptr %1, ptr %5, align 8
  store i32 %2, ptr %6, align 4
  %7 = load ptr, ptr %4, align 8
  %8 = load ptr, ptr %5, align 8
  %9 = getelementptr inbounds %class.GCCauseSetter, ptr %7, i32 0, i32 0
  store ptr %8, ptr %9, align 8
  %10 = getelementptr inbounds %class.GCCauseSetter, ptr %7, i32 0, i32 0
  %11 = load ptr, ptr %10, align 8
  %12 = call noundef i32 @_ZN13CollectedHeap8gc_causeEv(ptr noundef nonnull align 8 dereferenceable(104) %11)
  %13 = getelementptr inbounds %class.GCCauseSetter, ptr %7, i32 0, i32 1
  store i32 %12, ptr %13, align 8
  %14 = getelementptr inbounds %class.GCCauseSetter, ptr %7, i32 0, i32 0
  %15 = load ptr, ptr %14, align 8
  %16 = load i32, ptr %6, align 4
  call void @_ZN13CollectedHeap12set_gc_causeEN7GCCause5CauseE(ptr noundef nonnull align 8 dereferenceable(104) %15, i32 noundef %16)
  ret void
}

; Function Attrs: mustprogress nounwind uwtable
define hidden noundef ptr @_ZN15G1CollectedHeap19expand_and_allocateEm(ptr noundef nonnull align 8 dereferenceable(1488) %0, i64 noundef %1) #1 align 2 {
  %3 = alloca ptr, align 8
  %4 = alloca ptr, align 8
  %5 = alloca i64, align 8
  %6 = alloca i64, align 8
  store ptr %0, ptr %4, align 8
  store i64 %1, ptr %5, align 8
  %7 = load ptr, ptr %4, align 8
  br label %8

8:                                                ; preds = %2
  br label %9

9:                                                ; preds = %8
  %10 = getelementptr inbounds %class.G1CollectedHeap, ptr %7, i32 0, i32 17
  %11 = load ptr, ptr %10, align 8
  call void @_ZN14G1HeapVerifier27verify_region_sets_optionalEv(ptr noundef nonnull align 8 dereferenceable(8) %11)
  %12 = load i64, ptr %5, align 8
  %13 = mul i64 %12, 8
  %14 = load i64, ptr @MinHeapDeltaBytes, align 8
  %15 = call noundef i64 @_Z4MAX2ImET_S0_S0_(i64 noundef %13, i64 noundef %14)
  store i64 %15, ptr %6, align 8
  %16 = call noundef zeroext i1 @_ZN7LogImplILN6LogTag4typeE49ELS1_40ELS1_52ELS1_0ELS1_0ELS1_0EE8is_levelEN8LogLevel4typeE(i32 noundef 2)
  br i1 %16, label %18, label %17

17:                                               ; preds = %9
  br label %21

18:                                               ; preds = %9
  %19 = load i64, ptr %5, align 8
  %20 = mul i64 %19, 8
  call void (ptr, ...) @_ZN7LogImplILN6LogTag4typeE49ELS1_40ELS1_52ELS1_0ELS1_0ELS1_0EE5writeILN8LogLevel4typeE2EEEvPKcz(ptr noundef @.str.19, i64 noundef %20)
  br label %21

21:                                               ; preds = %18, %17
  %22 = load i64, ptr %6, align 8
  %23 = getelementptr inbounds %class.G1CollectedHeap, ptr %7, i32 0, i32 4
  %24 = load ptr, ptr %23, align 8
  %25 = call noundef zeroext i1 @_ZN15G1CollectedHeap6expandEmP13WorkerThreadsPd(ptr noundef nonnull align 8 dereferenceable(1488) %7, i64 noundef %22, ptr noundef %24, ptr noundef null)
  br i1 %25, label %26, label %32

26:                                               ; preds = %21
  %27 = getelementptr inbounds %class.G1CollectedHeap, ptr %7, i32 0, i32 14
  call void @_ZN19G1HeapRegionManager15verify_optionalEv(ptr noundef nonnull align 8 dereferenceable(232) %27)
  %28 = getelementptr inbounds %class.G1CollectedHeap, ptr %7, i32 0, i32 17
  %29 = load ptr, ptr %28, align 8
  call void @_ZN14G1HeapVerifier27verify_region_sets_optionalEv(ptr noundef nonnull align 8 dereferenceable(8) %29)
  %30 = load i64, ptr %5, align 8
  %31 = call noundef ptr @_ZN15G1CollectedHeap31attempt_allocation_at_safepointEmb(ptr noundef nonnull align 8 dereferenceable(1488) %7, i64 noundef %30, i1 noundef zeroext false)
  store ptr %31, ptr %3, align 8
  br label %33

32:                                               ; preds = %21
  store ptr null, ptr %3, align 8
  br label %33

33:                                               ; preds = %32, %26
  %34 = load ptr, ptr %3, align 8
  ret ptr %34
}

; Function Attrs: mustprogress nounwind uwtable
define hidden noundef ptr @_ZN15G1CollectedHeap32satisfy_failed_allocation_helperEmbbbPb(ptr noundef nonnull align 8 dereferenceable(1488) %0, i64 noundef %1, i1 noundef zeroext %2, i1 noundef zeroext %3, i1 noundef zeroext %4, ptr noundef %5) #1 align 2 {
  %7 = alloca ptr, align 8
  %8 = alloca ptr, align 8
  %9 = alloca i64, align 8
  %10 = alloca i8, align 1
  %11 = alloca i8, align 1
  %12 = alloca i8, align 1
  %13 = alloca ptr, align 8
  %14 = alloca ptr, align 8
  %15 = alloca %class.GCCauseSetter, align 8
  store ptr %0, ptr %8, align 8
  store i64 %1, ptr %9, align 8
  %16 = zext i1 %2 to i8
  store i8 %16, ptr %10, align 1
  %17 = zext i1 %3 to i8
  store i8 %17, ptr %11, align 1
  %18 = zext i1 %4 to i8
  store i8 %18, ptr %12, align 1
  store ptr %5, ptr %13, align 8
  %19 = load ptr, ptr %8, align 8
  %20 = load ptr, ptr %13, align 8
  store i8 1, ptr %20, align 1
  %21 = load i64, ptr %9, align 8
  %22 = load i8, ptr %12, align 1
  %23 = trunc i8 %22 to i1
  %24 = call noundef ptr @_ZN15G1CollectedHeap31attempt_allocation_at_safepointEmb(ptr noundef nonnull align 8 dereferenceable(1488) %19, i64 noundef %21, i1 noundef zeroext %23)
  store ptr %24, ptr %14, align 8
  %25 = load ptr, ptr %14, align 8
  %26 = icmp ne ptr %25, null
  br i1 %26, label %27, label %29

27:                                               ; preds = %6
  %28 = load ptr, ptr %14, align 8
  store ptr %28, ptr %7, align 8
  br label %61

29:                                               ; preds = %6
  %30 = load i64, ptr %9, align 8
  %31 = call noundef ptr @_ZN15G1CollectedHeap19expand_and_allocateEm(ptr noundef nonnull align 8 dereferenceable(1488) %19, i64 noundef %30)
  store ptr %31, ptr %14, align 8
  %32 = load ptr, ptr %14, align 8
  %33 = icmp ne ptr %32, null
  br i1 %33, label %34, label %36

34:                                               ; preds = %29
  %35 = load ptr, ptr %14, align 8
  store ptr %35, ptr %7, align 8
  br label %61

36:                                               ; preds = %29
  %37 = load i8, ptr %10, align 1
  %38 = trunc i8 %37 to i1
  br i1 %38, label %39, label %60

39:                                               ; preds = %36
  call void @_ZN13GCCauseSetterC2EP13CollectedHeapN7GCCause5CauseE(ptr noundef nonnull align 8 dereferenceable(12) %15, ptr noundef %19, i32 noundef 20)
  %40 = load i8, ptr %11, align 1
  %41 = trunc i8 %40 to i1
  br i1 %41, label %42, label %47

42:                                               ; preds = %39
  %43 = call noundef zeroext i1 @_ZN7LogImplILN6LogTag4typeE49ELS1_40ELS1_0ELS1_0ELS1_0ELS1_0EE8is_levelEN8LogLevel4typeE(i32 noundef 3)
  br i1 %43, label %45, label %44

44:                                               ; preds = %42
  br label %46

45:                                               ; preds = %42
  call void (ptr, ...) @_ZN7LogImplILN6LogTag4typeE49ELS1_40ELS1_0ELS1_0ELS1_0ELS1_0EE5writeILN8LogLevel4typeE3EEEvPKcz(ptr noundef @.str.17)
  br label %46

46:                                               ; preds = %45, %44
  br label %52

47:                                               ; preds = %39
  %48 = call noundef zeroext i1 @_ZN7LogImplILN6LogTag4typeE49ELS1_40ELS1_0ELS1_0ELS1_0ELS1_0EE8is_levelEN8LogLevel4typeE(i32 noundef 3)
  br i1 %48, label %50, label %49

49:                                               ; preds = %47
  br label %51

50:                                               ; preds = %47
  call void (ptr, ...) @_ZN7LogImplILN6LogTag4typeE49ELS1_40ELS1_0ELS1_0ELS1_0ELS1_0EE5writeILN8LogLevel4typeE3EEEvPKcz(ptr noundef @.str.18)
  br label %51

51:                                               ; preds = %50, %49
  br label %52

52:                                               ; preds = %51, %46
  %53 = load i8, ptr %11, align 1
  %54 = trunc i8 %53 to i1
  %55 = load i8, ptr %11, align 1
  %56 = trunc i8 %55 to i1
  %57 = call noundef zeroext i1 @_ZN15G1CollectedHeap18do_full_collectionEbb(ptr noundef nonnull align 8 dereferenceable(1488) %19, i1 noundef zeroext %54, i1 noundef zeroext %56)
  %58 = load ptr, ptr %13, align 8
  %59 = zext i1 %57 to i8
  store i8 %59, ptr %58, align 1
  call void @_ZN13GCCauseSetterD2Ev(ptr noundef nonnull align 8 dereferenceable(12) %15) #10
  br label %60

60:                                               ; preds = %52, %36
  store ptr null, ptr %7, align 8
  br label %61

61:                                               ; preds = %60, %34, %27
  %62 = load ptr, ptr %7, align 8
  ret ptr %62
}