; Function Attrs: mustprogress nounwind uwtable
define hidden noundef ptr @_ZN15G1CollectedHeap32satisfy_failed_allocation_helperEmbbbPb(ptr noundef nonnull align 8 dereferenceable(1488) %0, i64 noundef %1, i1 noundef zeroext %2, i1 noundef zeroext %3, i1 zeroext %4, ptr nocapture noundef writeonly %5) local_unnamed_addr #0 align 2 {
  store i8 1, ptr %5, align 1
  %7 = tail call noundef ptr @_ZN15G1CollectedHeap31attempt_allocation_at_safepointEmb(ptr noundef nonnull align 8 dereferenceable(1488) %0, i64 noundef %1, i1 zeroext poison)
  %.not = icmp eq ptr %7, null
  br i1 %.not, label %8, label %26

8:                                                ; preds = %6
  %9 = shl i64 %1, 3
  %10 = load i64, ptr @MinHeapDeltaBytes, align 8
  %11 = tail call noundef i64 @llvm.umax.i64(i64 %9, i64 %10)
  %12 = load volatile ptr, ptr getelementptr inbounds (i8, ptr @_ZN16LogTagSetMappingILN6LogTag4typeE49ELS1_40ELS1_52ELS1_0ELS1_0ELS1_0EE7_tagsetE, i64 56), align 8
  %.not.i = icmp eq ptr %12, null
  br i1 %.not.i, label %14, label %13

13:                                               ; preds = %8
  tail call void (ptr, ...) @_ZN7LogImplILN6LogTag4typeE49ELS1_40ELS1_52ELS1_0ELS1_0ELS1_0EE5writeILN8LogLevel4typeE2EEEvPKcz(ptr noundef nonnull @.str.19, i64 noundef %9)
  br label %14

14:                                               ; preds = %13, %8
  %15 = getelementptr inbounds i8, ptr %0, i64 128
  %16 = load ptr, ptr %15, align 8
  %17 = tail call noundef zeroext i1 @_ZN15G1CollectedHeap6expandEmP13WorkerThreadsPd(ptr noundef nonnull align 8 dereferenceable(1488) %0, i64 noundef %11, ptr noundef %16, ptr noundef null)
  br i1 %17, label %18, label %_ZN15G1CollectedHeap19expand_and_allocateEm.exit

18:                                               ; preds = %14
  %19 = tail call noundef ptr @_ZN15G1CollectedHeap31attempt_allocation_at_safepointEmb(ptr noundef nonnull align 8 dereferenceable(1488) %0, i64 noundef %1, i1 zeroext poison)
  br label %_ZN15G1CollectedHeap19expand_and_allocateEm.exit

_ZN15G1CollectedHeap19expand_and_allocateEm.exit: ; preds = %14, %18
  %.0.i = phi ptr [ %19, %18 ], [ null, %14 ]
  %.not16 = icmp eq ptr %.0.i, null
  %brmerge.not = and i1 %.not16, %2
  br i1 %brmerge.not, label %20, label %26

20:                                               ; preds = %_ZN15G1CollectedHeap19expand_and_allocateEm.exit
  %21 = getelementptr inbounds i8, ptr %0, i64 80
  %22 = load i32, ptr %21, align 8
  tail call void @_ZN13CollectedHeap12set_gc_causeEN7GCCause5CauseE(ptr noundef nonnull align 8 dereferenceable(104) %0, i32 noundef 20) #23
  %23 = load volatile ptr, ptr getelementptr inbounds (i8, ptr @_ZN16LogTagSetMappingILN6LogTag4typeE49ELS1_40ELS1_0ELS1_0ELS1_0ELS1_0EE7_tagsetE, i64 64), align 8
  %.not19 = icmp eq ptr %23, null
  br i1 %.not19, label %24, label %.sink.split

.sink.split:                                      ; preds = %20
  %.str.17..str.18 = select i1 %3, ptr @.str.17, ptr @.str.18
  tail call void (ptr, ...) @_ZN7LogImplILN6LogTag4typeE49ELS1_40ELS1_0ELS1_0ELS1_0ELS1_0EE5writeILN8LogLevel4typeE3EEEvPKcz(ptr noundef nonnull %.str.17..str.18)
  br label %24

24:                                               ; preds = %20, %.sink.split
  %25 = tail call noundef zeroext i1 @_ZN15G1CollectedHeap18do_full_collectionEbb(ptr noundef nonnull align 8 dereferenceable(1488) %0, i1 noundef zeroext %3, i1 noundef zeroext %3)
  store i8 1, ptr %5, align 1
  tail call void @_ZN13CollectedHeap12set_gc_causeEN7GCCause5CauseE(ptr noundef nonnull align 8 dereferenceable(104) %0, i32 noundef %22) #23
  br label %26

26:                                               ; preds = %_ZN15G1CollectedHeap19expand_and_allocateEm.exit, %24, %6
  %.0 = phi ptr [ %7, %6 ], [ %.0.i, %_ZN15G1CollectedHeap19expand_and_allocateEm.exit ], [ null, %24 ]
  ret ptr %.0
}